target datalayout = "e-m:e-p270:32:32-p271:32:32-p272:64:64-i64:64-i128:128-f80:128-n8:16:32:64-S128"
target triple = "x86_64-pc-linux-gnu"

%struct.H5L_trav_mv_t = type { ptr, i32, ptr, i32, i8, i64 }

@.str = private unnamed_addr constant [100 x i8] c"generated/home/dtcxzyw/WorkSpace/Projects/compilers/llvm-opt-benchmark/bench/hdf5/hdf5/src/H5Lint.c\00", align 1
@H5E_LINK_g = external global i64, align 8
@H5E_NOTFOUND_g = external global i64, align 8
@H5E_ARGS_g = external global i64, align 8
@H5E_BADTYPE_g = external global i64, align 8
@H5E_CANTGET_g = external global i64, align 8
@__func__.H5L__move = private unnamed_addr constant [10 x i8] c"H5L__move\00", align 1
@.str.15 = private unnamed_addr constant [20 x i8] c"not a property list\00", align 1
@H5E_PLIST_g = external global i64, align 8
@.str.16 = private unnamed_addr constant [53 x i8] c"can't get property value for creating missing groups\00", align 1
@.str.17 = private unnamed_addr constant [48 x i8] c"can't get property value for character encoding\00", align 1
@.str.18 = private unnamed_addr constant [52 x i8] c"unable to retrieve # of soft / UD links to traverse\00", align 1
@.str.19 = private unnamed_addr constant [20 x i8] c"unable to find link\00", align 1

; Function Attrs: nounwind uwtable
define i32 @H5L__move(ptr noundef %0, ptr noundef %1, ptr noundef %2, ptr noundef %3, i1 noundef zeroext %4, i64 noundef %5) #0 {
  %7 = alloca ptr, align 8
  %8 = alloca ptr, align 8
  %9 = alloca ptr, align 8
  %10 = alloca ptr, align 8
  %11 = alloca i8, align 1
  %12 = alloca i64, align 8
  %13 = alloca i32, align 4
  %14 = alloca i32, align 4
  %15 = alloca ptr, align 8
  %16 = alloca %struct.H5L_trav_mv_t, align 8
  %17 = alloca i32, align 4
  %18 = alloca i8, align 1
  %19 = alloca i32, align 4
  store ptr %0, ptr %7, align 8
  store ptr %1, ptr %8, align 8
  store ptr %2, ptr %9, align 8
  store ptr %3, ptr %10, align 8
  %20 = zext i1 %4 to i8
  store i8 %20, ptr %11, align 1
  store i64 %5, ptr %12, align 8
  store i32 0, ptr %13, align 4
  store i32 0, ptr %14, align 4
  store i32 0, ptr %17, align 4
  store i8 0, ptr %18, align 1
  %21 = load i64, ptr %12, align 8
  %22 = icmp ne i64 %21, 0
  br i1 %22, label %23, label %85

23:                                               ; preds = %6
  %24 = load i64, ptr %12, align 8
  %25 = call ptr @H5I_object(i64 noundef %24)
  store ptr %25, ptr %15, align 8
  %26 = icmp eq ptr null, %25
  br i1 %26, label %27, label %42

27:                                               ; preds = %23
  br label %28

28:                                               ; preds = %27
  br label %29

29:                                               ; preds = %28
  br label %30

30:                                               ; preds = %29
  %31 = load i64, ptr @H5E_ARGS_g, align 8
  %32 = load i64, ptr @H5E_BADTYPE_g, align 8
  %33 = call i32 (ptr, ptr, i32, i64, i64, ptr, ...) @H5E_printf_stack(ptr noundef @.str, ptr noundef @__func__.H5L__move, i32 noundef 1538, i64 noundef %31, i64 noundef %32, ptr noundef @.str.15)
  br label %34

34:                                               ; preds = %30
  store i8 1, ptr %18, align 1
  %35 = load i8, ptr %18, align 1
  %36 = trunc i8 %35 to i1
  %37 = zext i1 %36 to i8
  store i8 %37, ptr %18, align 1
  br label %38

38:                                               ; preds = %34
  br label %39

39:                                               ; preds = %38
  store i32 -1, ptr %17, align 4
  br label %137

40:                                               ; No predecessors!
  br label %41

41:                                               ; preds = %40
  br label %42

42:                                               ; preds = %41, %23
  %43 = call i32 @H5CX_get_intermediate_group(ptr noundef %19)
  %44 = icmp slt i32 %43, 0
  br i1 %44, label %45, label %60

45:                                               ; preds = %42
  br label %46

46:                                               ; preds = %45
  br label %47

47:                                               ; preds = %46
  br label %48

48:                                               ; preds = %47
  %49 = load i64, ptr @H5E_PLIST_g, align 8
  %50 = load i64, ptr @H5E_CANTGET_g, align 8
  %51 = call i32 (ptr, ptr, i32, i64, i64, ptr, ...) @H5E_printf_stack(ptr noundef @.str, ptr noundef @__func__.H5L__move, i32 noundef 1542, i64 noundef %49, i64 noundef %50, ptr noundef @.str.16)
  br label %52

52:                                               ; preds = %48
  store i8 1, ptr %18, align 1
  %53 = load i8, ptr %18, align 1
  %54 = trunc i8 %53 to i1
  %55 = zext i1 %54 to i8
  store i8 %55, ptr %18, align 1
  br label %56

56:                                               ; preds = %52
  br label %57

57:                                               ; preds = %56
  store i32 -1, ptr %17, align 4
  br label %137

58:                                               ; No predecessors!
  br label %59

59:                                               ; preds = %58
  br label %60

60:                                               ; preds = %59, %42
  %61 = load i32, ptr %19, align 4
  %62 = icmp ugt i32 %61, 0
  br i1 %62, label %63, label %66

63:                                               ; preds = %60
  %64 = load i32, ptr %13, align 4
  %65 = or i32 %64, 16
  store i32 %65, ptr %13, align 4
  br label %66

66:                                               ; preds = %63, %60
  %67 = call i32 @H5CX_get_encoding(ptr noundef %14)
  %68 = icmp slt i32 %67, 0
  br i1 %68, label %69, label %84

69:                                               ; preds = %66
  br label %70

70:                                               ; preds = %69
  br label %71

71:                                               ; preds = %70
  br label %72

72:                                               ; preds = %71
  %73 = load i64, ptr @H5E_PLIST_g, align 8
  %74 = load i64, ptr @H5E_CANTGET_g, align 8
  %75 = call i32 (ptr, ptr, i32, i64, i64, ptr, ...) @H5E_printf_stack(ptr noundef @.str, ptr noundef @__func__.H5L__move, i32 noundef 1550, i64 noundef %73, i64 noundef %74, ptr noundef @.str.17)
  br label %76

76:                                               ; preds = %72
  store i8 1, ptr %18, align 1
  %77 = load i8, ptr %18, align 1
  %78 = trunc i8 %77 to i1
  %79 = zext i1 %78 to i8
  store i8 %79, ptr %18, align 1
  br label %80

80:                                               ; preds = %76
  br label %81

81:                                               ; preds = %80
  store i32 -1, ptr %17, align 4
  br label %137

82:                                               ; No predecessors!
  br label %83

83:                                               ; preds = %82
  br label %84

84:                                               ; preds = %83, %66
  br label %85

85:                                               ; preds = %84, %6
  %86 = load ptr, ptr %9, align 8
  %87 = getelementptr inbounds %struct.H5L_trav_mv_t, ptr %16, i32 0, i32 2
  store ptr %86, ptr %87, align 8
  %88 = load ptr, ptr %10, align 8
  %89 = getelementptr inbounds %struct.H5L_trav_mv_t, ptr %16, i32 0, i32 0
  store ptr %88, ptr %89, align 8
  %90 = load i32, ptr %13, align 4
  %91 = getelementptr inbounds %struct.H5L_trav_mv_t, ptr %16, i32 0, i32 3
  store i32 %90, ptr %91, align 8
  %92 = load i32, ptr %14, align 4
  %93 = getelementptr inbounds %struct.H5L_trav_mv_t, ptr %16, i32 0, i32 1
  store i32 %92, ptr %93, align 8
  %94 = load i8, ptr %11, align 1
  %95 = trunc i8 %94 to i1
  %96 = getelementptr inbounds %struct.H5L_trav_mv_t, ptr %16, i32 0, i32 4
  %97 = zext i1 %95 to i8
  store i8 %97, ptr %96, align 4
  %98 = getelementptr inbounds %struct.H5L_trav_mv_t, ptr %16, i32 0, i32 5
  %99 = call i32 @H5CX_get_nlinks(ptr noundef %98)
  %100 = icmp slt i32 %99, 0
  br i1 %100, label %101, label %116

101:                                              ; preds = %85
  br label %102

102:                                              ; preds = %101
  br label %103

103:                                              ; preds = %102
  br label %104

104:                                              ; preds = %103
  %105 = load i64, ptr @H5E_LINK_g, align 8
  %106 = load i64, ptr @H5E_CANTGET_g, align 8
  %107 = call i32 (ptr, ptr, i32, i64, i64, ptr, ...) @H5E_printf_stack(ptr noundef @.str, ptr noundef @__func__.H5L__move, i32 noundef 1564, i64 noundef %105, i64 noundef %106, ptr noundef @.str.18)
  br label %108

108:                                              ; preds = %104
  store i8 1, ptr %18, align 1
  %109 = load i8, ptr %18, align 1
  %110 = trunc i8 %109 to i1
  %111 = zext i1 %110 to i8
  store i8 %111, ptr %18, align 1
  br label %112

112:                                              ; preds = %108
  br label %113

113:                                              ; preds = %112
  store i32 -1, ptr %17, align 4
  br label %137

114:                                              ; No predecessors!
  br label %115

115:                                              ; preds = %114
  br label %116

116:                                              ; preds = %115, %85
  %117 = load ptr, ptr %7, align 8
  %118 = load ptr, ptr %8, align 8
  %119 = call i32 @H5G_traverse(ptr noundef %117, ptr noundef %118, i32 noundef 7, ptr noundef @H5L__move_cb, ptr noundef %16)
  %120 = icmp slt i32 %119, 0
  br i1 %120, label %121, label %136

121:                                              ; preds = %116
  br label %122

122:                                              ; preds = %121
  br label %123

123:                                              ; preds = %122
  br label %124

124:                                              ; preds = %123
  %125 = load i64, ptr @H5E_LINK_g, align 8
  %126 = load i64, ptr @H5E_NOTFOUND_g, align 8
  %127 = call i32 (ptr, ptr, i32, i64, i64, ptr, ...) @H5E_printf_stack(ptr noundef @.str, ptr noundef @__func__.H5L__move, i32 noundef 1569, i64 noundef %125, i64 noundef %126, ptr noundef @.str.19)
  br label %128

128:                                              ; preds = %124
  store i8 1, ptr %18, align 1
  %129 = load i8, ptr %18, align 1
  %130 = trunc i8 %129 to i1
  %131 = zext i1 %130 to i8
  store i8 %131, ptr %18, align 1
  br label %132

132:                                              ; preds = %128
  br label %133

133:                                              ; preds = %132
  store i32 -1, ptr %17, align 4
  br label %137

134:                                              ; No predecessors!
  br label %135

135:                                              ; preds = %134
  br label %136

136:                                              ; preds = %135, %116
  br label %137

137:                                              ; preds = %136, %133, %113, %81, %57, %39
  %138 = load i32, ptr %17, align 4
  ret i32 %138
}