; Function Attrs: nounwind uwtable
define range(i32 -1, 1) i32 @H5L__move(ptr noundef %0, ptr noundef %1, ptr noundef %2, ptr noundef %3, i1 noundef zeroext %4, i64 noundef %5) local_unnamed_addr #0 {
  %7 = alloca i32, align 4
  %8 = alloca %struct.H5L_trav_mv_t, align 8
  %9 = alloca i32, align 4
  %10 = zext i1 %4 to i8
  store i32 0, ptr %7, align 4
  %.not = icmp eq i64 %5, 0
  br i1 %.not, label %33, label %11

11:                                               ; preds = %6
  %12 = tail call ptr @H5I_object(i64 noundef %5) #10
  %13 = icmp eq ptr %12, null
  br i1 %13, label %14, label %18

14:                                               ; preds = %11
  %15 = load i64, ptr @H5E_ARGS_g, align 8
  %16 = load i64, ptr @H5E_BADTYPE_g, align 8
  %17 = tail call i32 (ptr, ptr, i32, i64, i64, ptr, ...) @H5E_printf_stack(ptr noundef nonnull @.str, ptr noundef nonnull @__func__.H5L__move, i32 noundef 1538, i64 noundef %15, i64 noundef %16, ptr noundef nonnull @.str.15) #10
  br label %53

18:                                               ; preds = %11
  %19 = call i32 @H5CX_get_intermediate_group(ptr noundef nonnull %9) #10
  %20 = icmp slt i32 %19, 0
  br i1 %20, label %21, label %25

21:                                               ; preds = %18
  %22 = load i64, ptr @H5E_PLIST_g, align 8
  %23 = load i64, ptr @H5E_CANTGET_g, align 8
  %24 = call i32 (ptr, ptr, i32, i64, i64, ptr, ...) @H5E_printf_stack(ptr noundef nonnull @.str, ptr noundef nonnull @__func__.H5L__move, i32 noundef 1542, i64 noundef %22, i64 noundef %23, ptr noundef nonnull @.str.16) #10
  br label %53

25:                                               ; preds = %18
  %26 = load i32, ptr %9, align 4
  %27 = call i32 @H5CX_get_encoding(ptr noundef nonnull %7) #10
  %28 = icmp slt i32 %27, 0
  br i1 %28, label %29, label %._crit_edge

._crit_edge:                                      ; preds = %25
  %.not16 = icmp eq i32 %26, 0
  %spec.select = select i1 %.not16, i32 0, i32 16
  %.pre = load i32, ptr %7, align 4
  br label %33

29:                                               ; preds = %25
  %30 = load i64, ptr @H5E_PLIST_g, align 8
  %31 = load i64, ptr @H5E_CANTGET_g, align 8
  %32 = call i32 (ptr, ptr, i32, i64, i64, ptr, ...) @H5E_printf_stack(ptr noundef nonnull @.str, ptr noundef nonnull @__func__.H5L__move, i32 noundef 1550, i64 noundef %30, i64 noundef %31, ptr noundef nonnull @.str.17) #10
  br label %53

33:                                               ; preds = %._crit_edge, %6
  %34 = phi i32 [ %.pre, %._crit_edge ], [ 0, %6 ]
  %.1 = phi i32 [ %spec.select, %._crit_edge ], [ 0, %6 ]
  %35 = getelementptr inbounds i8, ptr %8, i64 16
  store ptr %2, ptr %35, align 8
  store ptr %3, ptr %8, align 8
  %36 = getelementptr inbounds i8, ptr %8, i64 24
  store i32 %.1, ptr %36, align 8
  %37 = getelementptr inbounds i8, ptr %8, i64 8
  store i32 %34, ptr %37, align 8
  %38 = getelementptr inbounds i8, ptr %8, i64 28
  store i8 %10, ptr %38, align 4
  %39 = getelementptr inbounds i8, ptr %8, i64 32
  %40 = call i32 @H5CX_get_nlinks(ptr noundef nonnull %39) #10
  %41 = icmp slt i32 %40, 0
  br i1 %41, label %42, label %46

42:                                               ; preds = %33
  %43 = load i64, ptr @H5E_LINK_g, align 8
  %44 = load i64, ptr @H5E_CANTGET_g, align 8
  %45 = call i32 (ptr, ptr, i32, i64, i64, ptr, ...) @H5E_printf_stack(ptr noundef nonnull @.str, ptr noundef nonnull @__func__.H5L__move, i32 noundef 1564, i64 noundef %43, i64 noundef %44, ptr noundef nonnull @.str.18) #10
  br label %53

46:                                               ; preds = %33
  %47 = call i32 @H5G_traverse(ptr noundef %0, ptr noundef %1, i32 noundef 7, ptr noundef nonnull @H5L__move_cb, ptr noundef nonnull %8) #10
  %48 = icmp slt i32 %47, 0
  br i1 %48, label %49, label %53

49:                                               ; preds = %46
  %50 = load i64, ptr @H5E_LINK_g, align 8
  %51 = load i64, ptr @H5E_NOTFOUND_g, align 8
  %52 = call i32 (ptr, ptr, i32, i64, i64, ptr, ...) @H5E_printf_stack(ptr noundef nonnull @.str, ptr noundef nonnull @__func__.H5L__move, i32 noundef 1569, i64 noundef %50, i64 noundef %51, ptr noundef nonnull @.str.19) #10
  br label %53

53:                                               ; preds = %46, %49, %42, %29, %21, %14
  %.0 = phi i32 [ -1, %14 ], [ -1, %21 ], [ -1, %29 ], [ -1, %42 ], [ -1, %49 ], [ 0, %46 ]
  ret i32 %.0
}